; Function Attrs: nounwind sspstrong uwtable
define dso_local i64 @rb_Hash(i64 noundef %0) local_unnamed_addr #2 {
  %2 = icmp eq i64 %0, 4
  br i1 %2, label %.sink.split, label %3

3:                                                ; preds = %1
  %4 = tail call i64 @rb_check_hash_type(i64 noundef %0) #23
  %5 = icmp eq i64 %4, 4
  br i1 %5, label %6, label %27

6:                                                ; preds = %3
  %7 = icmp eq i64 %0, 0
  %8 = and i64 %0, 7
  %9 = icmp ne i64 %8, 0
  %10 = or i1 %7, %9
  br i1 %10, label %rbimpl_RB_TYPE_P_fastpath.exit.thread, label %rbimpl_RB_TYPE_P_fastpath.exit

rbimpl_RB_TYPE_P_fastpath.exit:                   ; preds = %6
  %11 = inttoptr i64 %0 to ptr
  %12 = load i64, ptr %11, align 8, !tbaa !24
  %13 = and i64 %12, 31
  %14 = icmp eq i64 %13, 7
  br i1 %14, label %15, label %rbimpl_RB_TYPE_P_fastpath.exit.thread

15:                                               ; preds = %rbimpl_RB_TYPE_P_fastpath.exit
  %16 = and i64 %12, 8192
  %.not.i = icmp eq i64 %16, 0
  br i1 %.not.i, label %20, label %17

17:                                               ; preds = %15
  %18 = lshr i64 %12, 15
  %19 = and i64 %18, 127
  br label %rb_array_len.exit

20:                                               ; preds = %15
  %21 = getelementptr inbounds nuw i8, ptr %11, i64 16
  %22 = load i64, ptr %21, align 8, !tbaa !28
  br label %rb_array_len.exit

rb_array_len.exit:                                ; preds = %17, %20
  %.0.i8 = phi i64 [ %19, %17 ], [ %22, %20 ]
  %23 = icmp eq i64 %.0.i8, 0
  br i1 %23, label %.sink.split, label %rbimpl_RB_TYPE_P_fastpath.exit.thread

rbimpl_RB_TYPE_P_fastpath.exit.thread:            ; preds = %6, %rb_array_len.exit, %rbimpl_RB_TYPE_P_fastpath.exit
  %24 = load i64, ptr @rb_eTypeError, align 8, !tbaa !7
  %25 = tail call ptr @rb_obj_classname(i64 noundef %0) #23
  tail call void (i64, ptr, ...) @rb_raise(i64 noundef %24, ptr noundef nonnull @.str.23, ptr noundef %25) #24
  unreachable

.sink.split:                                      ; preds = %rb_array_len.exit, %1
  %26 = tail call i64 @rb_hash_new() #23
  br label %27

27:                                               ; preds = %.sink.split, %3
  %.0 = phi i64 [ %4, %3 ], [ %26, %.sink.split ]
  ret i64 %.0
}